; Function Attrs: nounwind uwtable
define internal void @data_offer_handle_source_actions(ptr readnone captures(none) %0, ptr noundef %1, i32 noundef %2) #0 {
  %.not = icmp eq ptr %1, null
  br i1 %.not, label %7, label %4

4:                                                ; preds = %3
  %5 = load ptr, ptr @WAYLAND_wl_proxy_get_id, align 8
  %6 = tail call i32 %5(ptr noundef nonnull %1) #12
  br label %7

7:                                                ; preds = %3, %4
  %8 = phi i32 [ %6, %4 ], [ -1, %3 ]
  tail call void (i32, ptr, ...) @SDL_LogTrace_REAL(i32 noundef 7, ptr noundef nonnull @.str.9, i32 noundef %8, i32 noundef %2) #12
  ret void
}